Certificate:
    Data:
        Version: 3 (0x2)
        Serial Number: 1 (0x1)
        Signature Algorithm: sha1WithRSAEncryption
        Issuer: C=SP, ST=MADRID, L=MADRID, O=V10 SUPPLY CHANNEL, CN=GRUPO V10
        Validity
            Not Before: Apr 22 13:57:48 2009 GMT
            Not After : Apr 20 13:57:48 2019 GMT
        Subject: C=SP, ST=MADRID, O=V10 SUPPLY CHANNEL, CN=http://v10server
        Subject Public Key Info:
            Public Key Algorithm: rsaEncryption
            RSA Public Key: (1024 bit)
                Modulus (1024 bit):
                    00:d4:f9:da:8a:fd:51:92:a6:27:b0:cc:f8:af:e1:
                    82:ad:5a:02:fc:7d:8a:0c:27:01:f9:4a:9e:98:58:
                    2e:88:0d:d9:ff:fb:68:a1:9d:cd:da:47:ef:92:12:
                    9b:b5:4b:08:01:d7:50:34:eb:bc:dc:d1:54:6f:75:
                    e6:44:df:09:4e:8d:98:d3:3f:1d:22:13:b4:46:43:
                    33:38:a3:f3:6d:4a:31:9a:d0:02:de:f2:d5:06:51:
                    08:43:f3:c4:6a:76:40:d3:24:91:44:14:c7:ef:a0:
                    56:01:6e:94:dd:b1:d8:dd:16:1c:3c:19:08:18:65:
                    99:0e:e0:88:1f:c9:e1:d5:0d
                Exponent: 65537 (0x10001)
        X509v3 extensions:
            X509v3 Basic Constraints: 
                CA:FALSE
            Netscape Comment: 
                OpenSSL Generated Certificate
            X509v3 Subject Key Identifier: 
                DA:E7:9D:EF:B0:EE:C8:9E:35:D2:BA:FF:D2:CF:8F:BC:8B:F1:78:22
            X509v3 Authority Key Identifier: 
                keyid:FD:60:77:31:52:D6:40:CD:35:DF:FB:7B:8D:2C:96:36:4E:86:51:76

    Signature Algorithm: sha1WithRSAEncryption
        5c:19:e4:40:cb:43:0a:1c:8f:ed:05:d4:2b:e9:7f:e7:08:c4:
        a4:7d:ed:3a:bf:45:fa:53:fd:4b:03:a7:fd:6f:c1:55:56:9e:
        e6:07:ac:70:56:e7:2b:d8:0d:3b:ac:dc:98:42:7c:47:de:ac:
        0c:ab:b1:15:32:be:3a:9f:9d:47:0e:a3:e0:4d:33:36:e1:d1:
        9b:92:bd:7d:6c:1c:f5:88:72:bc:34:13:41:4a:46:78:3a:c5:
        a5:7b:a9:2f:6e:ca:4c:d7:66:a3:f1:b8:5e:76:f3:d8:d3:52:
        ed:03:ae:de:0a:b7:49:5b:29:e3:2a:d0:e2:49:43:58:be:51:
        a8:7a
-----BEGIN CERTIFICATE-----
MIICpzCCAhCgAwIBAgIBATANBgkqhkiG9w0BAQUFADBgMQswCQYDVQQGEwJTUDEP
MA0GA1UECBMGTUFEUklEMQ8wDQYDVQQHEwZNQURSSUQxGzAZBgNVBAoTElYxMCBT
VVBQTFkgQ0hBTk5FTDESMBAGA1UEAxMJR1JVUE8gVjEwMB4XDTA5MDQyMjEzNTc0
OFoXDTE5MDQyMDEzNTc0OFowVjELMAkGA1UEBhMCU1AxDzANBgNVBAgTBk1BRFJJ
RDEbMBkGA1UEChMSVjEwIFNVUFBMWSBDSEFOTkVMMRkwFwYDVQQDExBodHRwOi8v
djEwc2VydmVyMIGfMA0GCSqGSIb3DQEBAQUAA4GNADCBiQKBgQDU+dqK/VGSpiew
zPiv4YKtWgL8fYoMJwH5Sp6YWC6IDdn/+2ihnc3aR++SEpu1SwgB11A067zc0VRv
deZE3wlOjZjTPx0iE7RGQzM4o/NtSjGa0ALe8tUGUQhD88RqdkDTJJFEFMfvoFYB
bpTdsdjdFhw8GQgYZZkO4IgfyeHVDQIDAQABo3sweTAJBgNVHRMEAjAAMCwGCWCG
SAGG+EIBDQQfFh1PcGVuU1NMIEdlbmVyYXRlZCBDZXJ0aWZpY2F0ZTAdBgNVHQ4E
FgQU2ued77DuyJ410rr/0s+PvIvxeCIwHwYDVR0jBBgwFoAU/WB3MVLWQM013/t7
jSyWNk6GUXYwDQYJKoZIhvcNAQEFBQADgYEAXBnkQMtDChyP7QXUK+l/5wjEpH3t
Or9F+lP9SwOn/W/BVVae5gescFbnK9gNO6zcmEJ8R96sDKuxFTK+Op+dRw6j4E0z
NuHRm5K9fWwc9YhyvDQTQUpGeDrFpXupL27KTNdmo/G4Xnbz2NNS7QOu3gq3SVsp
4yrQ4klDWL5RqHo=
-----END CERTIFICATE-----
