Certificate:
    Data:
        Version: 3 (0x2)
        Serial Number: 2 (0x2)
        Signature Algorithm: sha1WithRSAEncryption
        Issuer: C=SP, ST=MADRID, L=MADRID, O=V10 SUPPLY CHANNEL, CN=GRUPO V10
        Validity
            Not Before: Apr 22 14:27:43 2009 GMT
            Not After : Apr 20 14:27:43 2019 GMT
        Subject: C=SP, ST=MADRID, O=V10 SUPPLY CHANNEL, CN=http://pakillo:1234/v10.html?paco&
        Subject Public Key Info:
            Public Key Algorithm: rsaEncryption
            RSA Public Key: (1024 bit)
                Modulus (1024 bit):
                    00:91:98:f8:73:7a:1f:dc:5f:08:67:0a:4c:a5:b1:
                    f5:97:22:c8:af:b7:d3:bc:4f:9c:16:0d:f7:a2:d2:
                    a0:b0:46:06:52:4a:8d:a6:91:92:4b:1c:39:0d:91:
                    02:d7:07:75:1d:c7:b0:ba:bf:c9:0b:6c:2b:97:2a:
                    e8:4f:c0:8d:11:d7:6f:44:c7:87:49:11:f0:67:cb:
                    53:2b:09:e5:03:1c:38:2b:49:d6:61:a2:15:e7:9d:
                    c2:96:2a:2d:38:63:8d:95:cb:1e:6f:d6:df:ac:54:
                    a3:85:ab:75:59:13:43:ca:37:1a:41:26:8d:39:b5:
                    66:61:5b:4b:9f:b5:3c:69:3d
                Exponent: 65537 (0x10001)
        X509v3 extensions:
            X509v3 Basic Constraints: 
                CA:FALSE
            Netscape Comment: 
                OpenSSL Generated Certificate
            X509v3 Subject Key Identifier: 
                5B:C1:36:2C:CE:F7:94:FC:A4:C0:06:62:1A:E4:C6:90:B4:DC:53:0E
            X509v3 Authority Key Identifier: 
                keyid:FD:60:77:31:52:D6:40:CD:35:DF:FB:7B:8D:2C:96:36:4E:86:51:76

    Signature Algorithm: sha1WithRSAEncryption
        9b:ce:fa:53:8e:38:4d:1b:0e:33:b4:a1:9f:72:ec:1f:cb:17:
        e5:3b:34:0f:f8:9f:54:c9:c0:5f:d2:97:79:c0:20:c9:5f:c0:
        de:f2:58:97:9b:3d:65:ff:0c:e7:36:6e:80:27:c4:31:1d:14:
        cf:1a:ce:df:35:7e:cc:75:e3:29:57:a9:74:a2:19:07:03:44:
        68:e5:2f:67:8b:aa:b7:a4:59:99:ed:25:15:a9:c0:89:b4:06:
        2c:0f:ed:60:31:bd:0f:96:63:af:83:bd:cd:80:c4:09:7f:75:
        4b:56:0c:48:e8:6d:31:bf:49:ff:1b:44:ae:18:43:2b:36:96:
        b4:82
-----BEGIN CERTIFICATE-----
MIICuTCCAiKgAwIBAgIBAjANBgkqhkiG9w0BAQUFADBgMQswCQYDVQQGEwJTUDEP
MA0GA1UECBMGTUFEUklEMQ8wDQYDVQQHEwZNQURSSUQxGzAZBgNVBAoTElYxMCBT
VVBQTFkgQ0hBTk5FTDESMBAGA1UEAxMJR1JVUE8gVjEwMB4XDTA5MDQyMjE0Mjc0
M1oXDTE5MDQyMDE0Mjc0M1owaDELMAkGA1UEBhMCU1AxDzANBgNVBAgTBk1BRFJJ
RDEbMBkGA1UEChMSVjEwIFNVUFBMWSBDSEFOTkVMMSswKQYDVQQDFCJodHRwOi8v
cGFraWxsbzoxMjM0L3YxMC5odG1sP3BhY28mMIGfMA0GCSqGSIb3DQEBAQUAA4GN
ADCBiQKBgQCRmPhzeh/cXwhnCkylsfWXIsivt9O8T5wWDfei0qCwRgZSSo2mkZJL
HDkNkQLXB3Udx7C6v8kLbCuXKuhPwI0R129Ex4dJEfBny1MrCeUDHDgrSdZhohXn
ncKWKi04Y42Vyx5v1t+sVKOFq3VZE0PKNxpBJo05tWZhW0uftTxpPQIDAQABo3sw
eTAJBgNVHRMEAjAAMCwGCWCGSAGG+EIBDQQfFh1PcGVuU1NMIEdlbmVyYXRlZCBD
ZXJ0aWZpY2F0ZTAdBgNVHQ4EFgQUW8E2LM73lPykwAZiGuTGkLTcUw4wHwYDVR0j
BBgwFoAU/WB3MVLWQM013/t7jSyWNk6GUXYwDQYJKoZIhvcNAQEFBQADgYEAm876
U444TRsOM7Shn3LsH8sX5Ts0D/ifVMnAX9KXecAgyV/A3vJYl5s9Zf8M5zZugCfE
MR0UzxrO3zV+zHXjKVepdKIZBwNEaOUvZ4uqt6RZme0lFanAibQGLA/tYDG9D5Zj
r4O9zYDECX91S1YMSOhtMb9J/xtErhhDKzaWtII=
-----END CERTIFICATE-----
