Certificate:
    Data:
        Version: 3 (0x2)
        Serial Number: 3 (0x3)
        Signature Algorithm: sha1WithRSAEncryption
        Issuer: C=SP, ST=MADRID, L=MADRID, O=V10 SUPPLY CHANNEL, CN=GRUPO V10
        Validity
            Not Before: Apr 22 14:31:53 2009 GMT
            Not After : Apr 20 14:31:53 2019 GMT
        Subject: C=SP, ST=MADRID, O=V10 SUPPLY CHANNEL, CN=https://pakillo:1234
        Subject Public Key Info:
            Public Key Algorithm: rsaEncryption
            RSA Public Key: (1024 bit)
                Modulus (1024 bit):
                    00:c7:bb:25:b2:35:3c:45:96:a1:ea:5a:62:28:6b:
                    6c:c5:2e:2b:8a:d9:be:a7:b3:9b:c3:14:11:98:d5:
                    08:32:0f:55:5d:a7:41:b4:97:9d:15:bc:9c:ed:c1:
                    f0:90:bb:46:69:1d:74:e7:ff:e7:23:e0:2e:82:4d:
                    55:32:6d:86:5f:e6:3a:0f:0b:ce:49:ae:df:41:12:
                    e1:c1:17:ea:8e:53:77:b8:89:2d:43:90:13:4f:dd:
                    98:04:43:10:68:30:ee:26:7a:f0:e5:1a:91:78:76:
                    f4:17:da:63:26:8f:ab:02:27:96:9f:86:ec:f5:c7:
                    c6:86:02:6e:f8:8d:92:ad:d3
                Exponent: 65537 (0x10001)
        X509v3 extensions:
            X509v3 Basic Constraints: 
                CA:FALSE
            Netscape Comment: 
                OpenSSL Generated Certificate
            X509v3 Subject Key Identifier: 
                07:15:D2:9A:9B:8A:CC:A2:F6:42:07:04:DA:4A:A0:D7:FC:AF:1A:DC
            X509v3 Authority Key Identifier: 
                keyid:FD:60:77:31:52:D6:40:CD:35:DF:FB:7B:8D:2C:96:36:4E:86:51:76

    Signature Algorithm: sha1WithRSAEncryption
        38:e8:53:74:40:f6:80:86:f1:3b:7e:1b:06:27:bf:c4:25:80:
        b1:30:bb:c2:24:a1:0d:86:39:ab:9b:4f:2b:ef:63:1e:0d:46:
        db:e4:c5:f9:04:05:ca:da:b3:a0:f0:9d:b9:95:32:e9:53:bd:
        97:fc:f8:37:b5:93:90:5a:36:b5:41:97:f5:43:cc:e9:76:46:
        52:6d:ab:fb:68:ab:a1:7e:be:1e:70:f3:c5:4c:15:86:80:34:
        df:b7:f2:ac:e9:22:93:b1:96:c7:04:77:72:fc:f2:37:5d:ac:
        6d:d3:81:5c:27:1f:fb:26:65:e5:52:bd:d1:5d:08:96:15:3a:
        ae:d8
-----BEGIN CERTIFICATE-----
MIICqzCCAhSgAwIBAgIBAzANBgkqhkiG9w0BAQUFADBgMQswCQYDVQQGEwJTUDEP
MA0GA1UECBMGTUFEUklEMQ8wDQYDVQQHEwZNQURSSUQxGzAZBgNVBAoTElYxMCBT
VVBQTFkgQ0hBTk5FTDESMBAGA1UEAxMJR1JVUE8gVjEwMB4XDTA5MDQyMjE0MzE1
M1oXDTE5MDQyMDE0MzE1M1owWjELMAkGA1UEBhMCU1AxDzANBgNVBAgTBk1BRFJJ
RDEbMBkGA1UEChMSVjEwIFNVUFBMWSBDSEFOTkVMMR0wGwYDVQQDExRodHRwczov
L3Bha2lsbG86MTIzNDCBnzANBgkqhkiG9w0BAQEFAAOBjQAwgYkCgYEAx7slsjU8
RZah6lpiKGtsxS4ritm+p7ObwxQRmNUIMg9VXadBtJedFbyc7cHwkLtGaR105//n
I+Augk1VMm2GX+Y6DwvOSa7fQRLhwRfqjlN3uIktQ5ATT92YBEMQaDDuJnrw5RqR
eHb0F9pjJo+rAieWn4bs9cfGhgJu+I2SrdMCAwEAAaN7MHkwCQYDVR0TBAIwADAs
BglghkgBhvhCAQ0EHxYdT3BlblNTTCBHZW5lcmF0ZWQgQ2VydGlmaWNhdGUwHQYD
VR0OBBYEFAcV0pqbisyi9kIHBNpKoNf8rxrcMB8GA1UdIwQYMBaAFP1gdzFS1kDN
Nd/7e40sljZOhlF2MA0GCSqGSIb3DQEBBQUAA4GBADjoU3RA9oCG8Tt+GwYnv8Ql
gLEwu8IkoQ2GOaubTyvvYx4NRtvkxfkEBcras6DwnbmVMulTvZf8+De1k5BaNrVB
l/VDzOl2RlJtq/toq6F+vh5w88VMFYaANN+38qzpIpOxlscEd3L88jddrG3TgVwn
H/smZeVSvdFdCJYVOq7Y
-----END CERTIFICATE-----
