Certificate:
    Data:
        Version: 3 (0x2)
        Serial Number: 4 (0x4)
        Signature Algorithm: sha1WithRSAEncryption
        Issuer: C=SP, ST=MADRID, L=MADRID, O=V10 SUPPLY CHANNEL, CN=GRUPO V10
        Validity
            Not Before: Apr 22 14:36:05 2009 GMT
            Not After : Apr 20 14:36:05 2019 GMT
        Subject: C=SP, ST=MADRID, O=V10 SUPPLY CHANNEL, CN=https://pakillo:1234/v10.html
        Subject Public Key Info:
            Public Key Algorithm: rsaEncryption
            RSA Public Key: (1024 bit)
                Modulus (1024 bit):
                    00:a4:35:14:60:9c:f1:52:d3:e3:66:bb:74:ca:80:
                    4f:c9:90:db:e0:ab:38:02:db:88:93:2c:cc:4f:63:
                    29:94:2a:97:d2:56:0a:47:fc:08:c1:97:89:6b:12:
                    3a:42:51:bf:64:3a:29:d2:46:b6:dc:87:5c:97:32:
                    86:66:b7:d9:3e:2d:46:33:cc:29:40:7f:f3:20:8b:
                    12:e2:02:0f:ff:80:bd:4d:8c:3e:8e:9d:7f:9d:8f:
                    02:c8:e7:ab:d5:03:d7:95:06:ad:a9:ae:5b:14:b3:
                    12:46:bd:c3:ef:5e:2c:f9:e3:fa:38:d6:66:0b:bc:
                    8f:f8:cc:58:17:0b:ce:42:83
                Exponent: 65537 (0x10001)
        X509v3 extensions:
            X509v3 Basic Constraints: 
                CA:FALSE
            Netscape Comment: 
                OpenSSL Generated Certificate
            X509v3 Subject Key Identifier: 
                FF:74:B8:ED:6B:A6:C1:1D:FE:8E:8E:A9:59:7B:B0:20:9C:58:3E:95
            X509v3 Authority Key Identifier: 
                keyid:FD:60:77:31:52:D6:40:CD:35:DF:FB:7B:8D:2C:96:36:4E:86:51:76

    Signature Algorithm: sha1WithRSAEncryption
        a3:fd:33:b8:43:8d:25:ef:e3:fb:85:87:a8:76:48:cb:49:41:
        09:ec:a1:bb:8d:6b:b0:f8:5c:7a:47:74:61:db:c0:a4:44:ff:
        36:d6:fa:cf:24:84:29:5f:53:31:ed:bd:99:f9:c6:7a:22:a9:
        b9:a8:6b:7a:0e:9a:38:6e:2c:ed:05:77:be:f8:1f:f3:e0:53:
        4d:7b:b1:42:c7:16:56:a6:65:7d:04:fe:95:3c:04:1e:4f:19:
        09:7d:b7:b7:9a:1a:65:85:69:cc:ed:3a:71:66:91:45:9f:4d:
        48:83:a5:8d:73:9c:a0:4d:e2:83:91:6b:49:91:b3:03:47:06:
        d1:cf
-----BEGIN CERTIFICATE-----
MIICtDCCAh2gAwIBAgIBBDANBgkqhkiG9w0BAQUFADBgMQswCQYDVQQGEwJTUDEP
MA0GA1UECBMGTUFEUklEMQ8wDQYDVQQHEwZNQURSSUQxGzAZBgNVBAoTElYxMCBT
VVBQTFkgQ0hBTk5FTDESMBAGA1UEAxMJR1JVUE8gVjEwMB4XDTA5MDQyMjE0MzYw
NVoXDTE5MDQyMDE0MzYwNVowYzELMAkGA1UEBhMCU1AxDzANBgNVBAgTBk1BRFJJ
RDEbMBkGA1UEChMSVjEwIFNVUFBMWSBDSEFOTkVMMSYwJAYDVQQDEx1odHRwczov
L3Bha2lsbG86MTIzNC92MTAuaHRtbDCBnzANBgkqhkiG9w0BAQEFAAOBjQAwgYkC
gYEApDUUYJzxUtPjZrt0yoBPyZDb4Ks4AtuIkyzMT2MplCqX0lYKR/wIwZeJaxI6
QlG/ZDop0ka23IdclzKGZrfZPi1GM8wpQH/zIIsS4gIP/4C9TYw+jp1/nY8CyOer
1QPXlQatqa5bFLMSRr3D714s+eP6ONZmC7yP+MxYFwvOQoMCAwEAAaN7MHkwCQYD
VR0TBAIwADAsBglghkgBhvhCAQ0EHxYdT3BlblNTTCBHZW5lcmF0ZWQgQ2VydGlm
aWNhdGUwHQYDVR0OBBYEFP90uO1rpsEd/o6OqVl7sCCcWD6VMB8GA1UdIwQYMBaA
FP1gdzFS1kDNNd/7e40sljZOhlF2MA0GCSqGSIb3DQEBBQUAA4GBAKP9M7hDjSXv
4/uFh6h2SMtJQQnsobuNa7D4XHpHdGHbwKRE/zbW+s8khClfUzHtvZn5xnoiqbmo
a3oOmjhuLO0Fd774H/PgU017sULHFlamZX0E/pU8BB5PGQl9t7eaGmWFacztOnFm
kUWfTUiDpY1znKBN4oORa0mRswNHBtHP
-----END CERTIFICATE-----
