Certificate:
    Data:
        Version: 3 (0x2)
        Serial Number: 5 (0x5)
        Signature Algorithm: sha1WithRSAEncryption
        Issuer: C=SP, ST=MADRID, L=MADRID, O=V10 SUPPLY CHANNEL, CN=GRUPO V10
        Validity
            Not Before: Apr 22 14:39:48 2009 GMT
            Not After : Apr 20 14:39:48 2019 GMT
        Subject: C=SP, ST=MADRID, O=V10 SUPPLY CHANNEL, CN=https://pakillo:1234/v10.html?paco&
        Subject Public Key Info:
            Public Key Algorithm: rsaEncryption
            RSA Public Key: (1024 bit)
                Modulus (1024 bit):
                    00:d6:07:18:03:e7:17:2d:df:ec:99:1f:d5:cf:19:
                    61:90:6a:e7:e6:86:59:ff:65:d4:cf:45:dc:a8:a5:
                    49:31:e9:56:79:e8:c1:bd:68:c3:21:27:e4:37:61:
                    cc:1c:38:0f:ed:d9:4d:19:13:45:74:e3:46:18:5c:
                    51:0d:8a:77:67:af:45:17:96:a3:7b:b9:f6:81:11:
                    fb:22:4e:03:ba:53:d6:59:7e:a7:32:ff:c3:11:77:
                    3d:f4:46:8f:3a:0c:d6:57:5d:ad:47:2c:8d:67:f0:
                    2d:72:d6:7e:36:c1:23:dd:21:37:58:96:d3:e0:34:
                    be:7e:d1:e2:9a:12:10:22:73
                Exponent: 65537 (0x10001)
        X509v3 extensions:
            X509v3 Basic Constraints: 
                CA:FALSE
            Netscape Comment: 
                OpenSSL Generated Certificate
            X509v3 Subject Key Identifier: 
                1F:C6:70:DB:81:32:6A:34:BF:5A:91:EE:78:68:B5:38:D2:F7:F7:4A
            X509v3 Authority Key Identifier: 
                keyid:FD:60:77:31:52:D6:40:CD:35:DF:FB:7B:8D:2C:96:36:4E:86:51:76

    Signature Algorithm: sha1WithRSAEncryption
        9b:29:31:ff:ed:81:36:36:ca:20:43:4d:e6:bc:88:1f:7b:d9:
        d2:5d:05:a1:d9:16:d2:68:79:eb:8f:2c:e2:a7:7b:b1:0f:2e:
        03:18:19:db:9d:81:6d:47:1b:79:1f:eb:4a:96:3a:63:bc:d5:
        c8:cd:a1:e3:d0:45:77:5e:78:bc:e4:16:18:cb:bd:da:2c:76:
        dd:7a:7a:94:51:c7:89:1a:52:b8:a6:f9:74:af:57:2d:09:26:
        5c:bf:25:8d:da:83:38:6c:7c:34:37:f7:52:90:24:71:d4:6a:
        f4:74:c8:d6:8d:ae:84:9b:c8:ba:37:09:4c:b3:70:76:84:a2:
        fd:07
-----BEGIN CERTIFICATE-----
MIICujCCAiOgAwIBAgIBBTANBgkqhkiG9w0BAQUFADBgMQswCQYDVQQGEwJTUDEP
MA0GA1UECBMGTUFEUklEMQ8wDQYDVQQHEwZNQURSSUQxGzAZBgNVBAoTElYxMCBT
VVBQTFkgQ0hBTk5FTDESMBAGA1UEAxMJR1JVUE8gVjEwMB4XDTA5MDQyMjE0Mzk0
OFoXDTE5MDQyMDE0Mzk0OFowaTELMAkGA1UEBhMCU1AxDzANBgNVBAgTBk1BRFJJ
RDEbMBkGA1UEChMSVjEwIFNVUFBMWSBDSEFOTkVMMSwwKgYDVQQDFCNodHRwczov
L3Bha2lsbG86MTIzNC92MTAuaHRtbD9wYWNvJjCBnzANBgkqhkiG9w0BAQEFAAOB
jQAwgYkCgYEA1gcYA+cXLd/smR/VzxlhkGrn5oZZ/2XUz0XcqKVJMelWeejBvWjD
ISfkN2HMHDgP7dlNGRNFdONGGFxRDYp3Z69FF5aje7n2gRH7Ik4DulPWWX6nMv/D
EXc99EaPOgzWV12tRyyNZ/AtctZ+NsEj3SE3WJbT4DS+ftHimhIQInMCAwEAAaN7
MHkwCQYDVR0TBAIwADAsBglghkgBhvhCAQ0EHxYdT3BlblNTTCBHZW5lcmF0ZWQg
Q2VydGlmaWNhdGUwHQYDVR0OBBYEFB/GcNuBMmo0v1qR7nhotTjS9/dKMB8GA1Ud
IwQYMBaAFP1gdzFS1kDNNd/7e40sljZOhlF2MA0GCSqGSIb3DQEBBQUAA4GBAJsp
Mf/tgTY2yiBDTea8iB972dJdBaHZFtJoeeuPLOKne7EPLgMYGdudgW1HG3kf60qW
OmO81cjNoePQRXdeeLzkFhjLvdosdt16epRRx4kaUrim+XSvVy0JJly/JY3agzhs
fDQ391KQJHHUavR0yNaNroSbyLo3CUyzcHaEov0H
-----END CERTIFICATE-----
