Certificate:
    Data:
        Version: 3 (0x2)
        Serial Number: 6 (0x6)
        Signature Algorithm: sha1WithRSAEncryption
        Issuer: C=SP, ST=MADRID, L=MADRID, O=V10 SUPPLY CHANNEL, CN=GRUPO V10
        Validity
            Not Before: Apr 22 14:46:08 2009 GMT
            Not After : Apr 20 14:46:08 2019 GMT
        Subject: C=SP, ST=MADRID, O=V10 SUPPLY CHANNEL, CN=pakillo
        Subject Public Key Info:
            Public Key Algorithm: rsaEncryption
            RSA Public Key: (1024 bit)
                Modulus (1024 bit):
                    00:b6:b3:71:78:4c:f7:3c:9a:4e:dc:76:7b:24:f2:
                    89:00:cc:2e:2e:04:d2:7c:d7:96:05:96:15:40:e6:
                    fe:3c:d7:bb:d0:b8:60:51:c7:af:62:51:d5:53:59:
                    e0:f2:d3:c6:dc:07:c2:84:56:64:0d:56:e7:96:97:
                    df:56:b3:4f:9a:03:61:d5:85:e2:d8:ad:61:77:91:
                    4c:03:db:10:e1:9f:84:87:a1:88:4d:0b:2a:58:2a:
                    74:a9:93:92:70:df:b0:12:44:ef:c3:cc:9d:26:0d:
                    ed:d3:2c:21:76:26:38:45:d2:a6:b8:0e:3a:1a:cc:
                    70:b7:15:c9:71:a0:8e:9e:b9
                Exponent: 65537 (0x10001)
        X509v3 extensions:
            X509v3 Basic Constraints: 
                CA:FALSE
            Netscape Comment: 
                OpenSSL Generated Certificate
            X509v3 Subject Key Identifier: 
                D5:B4:D8:C1:DC:14:28:8E:7D:EE:EA:44:2A:EF:B9:67:46:DB:AB:91
            X509v3 Authority Key Identifier: 
                keyid:FD:60:77:31:52:D6:40:CD:35:DF:FB:7B:8D:2C:96:36:4E:86:51:76

    Signature Algorithm: sha1WithRSAEncryption
        6d:5d:c0:7e:88:a3:1e:88:b4:d4:5c:a6:5d:39:93:18:a3:c6:
        a8:39:c0:9c:7c:31:52:86:26:9a:3e:10:92:36:ce:26:12:0c:
        8d:bf:11:e9:1b:48:c9:c3:aa:34:f2:21:50:20:a4:f9:f0:34:
        0a:97:2d:a2:54:56:ad:34:9c:17:af:8c:b3:8d:9f:80:03:5a:
        9f:01:46:4c:90:b2:cd:43:cb:88:db:bc:12:20:ca:33:41:13:
        63:50:5a:bb:6a:27:b0:32:74:91:24:7b:e9:86:c1:14:44:8c:
        97:32:65:c0:37:10:9d:87:09:14:4e:bf:58:e9:ca:20:d5:f7:
        8a:f4
-----BEGIN CERTIFICATE-----
MIICnjCCAgegAwIBAgIBBjANBgkqhkiG9w0BAQUFADBgMQswCQYDVQQGEwJTUDEP
MA0GA1UECBMGTUFEUklEMQ8wDQYDVQQHEwZNQURSSUQxGzAZBgNVBAoTElYxMCBT
VVBQTFkgQ0hBTk5FTDESMBAGA1UEAxMJR1JVUE8gVjEwMB4XDTA5MDQyMjE0NDYw
OFoXDTE5MDQyMDE0NDYwOFowTTELMAkGA1UEBhMCU1AxDzANBgNVBAgTBk1BRFJJ
RDEbMBkGA1UEChMSVjEwIFNVUFBMWSBDSEFOTkVMMRAwDgYDVQQDEwdwYWtpbGxv
MIGfMA0GCSqGSIb3DQEBAQUAA4GNADCBiQKBgQC2s3F4TPc8mk7cdnsk8okAzC4u
BNJ815YFlhVA5v4817vQuGBRx69iUdVTWeDy08bcB8KEVmQNVueWl99Ws0+aA2HV
heLYrWF3kUwD2xDhn4SHoYhNCypYKnSpk5Jw37ASRO/DzJ0mDe3TLCF2JjhF0qa4
DjoazHC3FclxoI6euQIDAQABo3sweTAJBgNVHRMEAjAAMCwGCWCGSAGG+EIBDQQf
Fh1PcGVuU1NMIEdlbmVyYXRlZCBDZXJ0aWZpY2F0ZTAdBgNVHQ4EFgQU1bTYwdwU
KI597upEKu+5Z0bbq5EwHwYDVR0jBBgwFoAU/WB3MVLWQM013/t7jSyWNk6GUXYw
DQYJKoZIhvcNAQEFBQADgYEAbV3AfoijHoi01FymXTmTGKPGqDnAnHwxUoYmmj4Q
kjbOJhIMjb8R6RtIycOqNPIhUCCk+fA0CpctolRWrTScF6+Ms42fgANanwFGTJCy
zUPLiNu8EiDKM0ETY1Bau2onsDJ0kSR76YbBFESMlzJlwDcQnYcJFE6/WOnKINX3
ivQ=
-----END CERTIFICATE-----
