Certificate:
    Data:
        Version: 3 (0x2)
        Serial Number: 7 (0x7)
        Signature Algorithm: sha1WithRSAEncryption
        Issuer: C=SP, ST=MADRID, L=MADRID, O=V10 SUPPLY CHANNEL, CN=GRUPO V10
        Validity
            Not Before: May 21 09:55:20 2009 GMT
            Not After : May 19 09:55:20 2019 GMT
        Subject: C=SP, ST=MADRID, O=V10 SUPPLY CHANNEL, OU=GRUPO V10, CN=localhost
        Subject Public Key Info:
            Public Key Algorithm: rsaEncryption
            RSA Public Key: (1024 bit)
                Modulus (1024 bit):
                    00:d0:80:d9:40:c4:ff:c0:fe:3c:46:f5:d8:ae:b8:
                    bd:fa:29:fa:23:58:ca:85:2c:e7:c6:87:dc:3f:85:
                    89:8c:f1:ac:71:cf:97:2a:45:2f:e9:ef:1c:9d:7e:
                    87:cc:f4:e0:33:af:72:8f:09:df:8f:a9:76:9e:e9:
                    99:70:11:d2:02:27:55:09:80:66:0d:da:4b:08:76:
                    02:f5:ad:7d:a2:23:7a:9d:f4:97:bd:27:b9:6a:a7:
                    8b:b8:ce:17:fa:58:f2:1d:48:6c:98:7e:ce:09:a3:
                    fc:d8:1d:96:cf:61:fb:ab:8c:69:90:9d:2a:f1:eb:
                    5a:23:f0:9b:dd:b5:5c:ad:eb
                Exponent: 65537 (0x10001)
        X509v3 extensions:
            X509v3 Basic Constraints: 
                CA:FALSE
            Netscape Comment: 
                OpenSSL Generated Certificate
            X509v3 Subject Key Identifier: 
                E2:AD:CA:F1:CF:BB:E9:41:36:59:CA:93:85:97:3A:C5:99:CB:43:1B
            X509v3 Authority Key Identifier: 
                keyid:FD:60:77:31:52:D6:40:CD:35:DF:FB:7B:8D:2C:96:36:4E:86:51:76

    Signature Algorithm: sha1WithRSAEncryption
        8d:21:08:d9:ee:69:c4:ce:5a:07:18:ba:87:92:b3:c0:64:77:
        01:c5:b0:9d:95:61:37:0c:59:dd:24:a1:a7:ea:72:43:a0:2e:
        e9:d8:6b:28:66:0e:d3:32:3a:50:1a:91:06:58:dc:ff:69:71:
        87:06:a7:b3:f2:e6:30:e0:61:c9:ac:80:c7:95:3f:44:2a:08:
        3f:05:14:bc:c6:1c:10:b6:1c:7c:29:9d:67:20:b8:55:c6:28:
        f7:19:2e:ce:90:cb:29:ea:45:0e:56:51:83:21:f4:be:b4:6a:
        d5:a1:50:d8:9e:4a:3e:aa:53:2a:3d:6c:ef:1b:6c:fd:5a:3f:
        74:b9
-----BEGIN CERTIFICATE-----
MIICtDCCAh2gAwIBAgIBBzANBgkqhkiG9w0BAQUFADBgMQswCQYDVQQGEwJTUDEP
MA0GA1UECBMGTUFEUklEMQ8wDQYDVQQHEwZNQURSSUQxGzAZBgNVBAoTElYxMCBT
VVBQTFkgQ0hBTk5FTDESMBAGA1UEAxMJR1JVUE8gVjEwMB4XDTA5MDUyMTA5NTUy
MFoXDTE5MDUxOTA5NTUyMFowYzELMAkGA1UEBhMCU1AxDzANBgNVBAgTBk1BRFJJ
RDEbMBkGA1UEChMSVjEwIFNVUFBMWSBDSEFOTkVMMRIwEAYDVQQLEwlHUlVQTyBW
MTAxEjAQBgNVBAMTCWxvY2FsaG9zdDCBnzANBgkqhkiG9w0BAQEFAAOBjQAwgYkC
gYEA0IDZQMT/wP48RvXYrri9+in6I1jKhSznxofcP4WJjPGscc+XKkUv6e8cnX6H
zPTgM69yjwnfj6l2numZcBHSAidVCYBmDdpLCHYC9a19oiN6nfSXvSe5aqeLuM4X
+ljyHUhsmH7OCaP82B2Wz2H7q4xpkJ0q8etaI/Cb3bVcresCAwEAAaN7MHkwCQYD
VR0TBAIwADAsBglghkgBhvhCAQ0EHxYdT3BlblNTTCBHZW5lcmF0ZWQgQ2VydGlm
aWNhdGUwHQYDVR0OBBYEFOKtyvHPu+lBNlnKk4WXOsWZy0MbMB8GA1UdIwQYMBaA
FP1gdzFS1kDNNd/7e40sljZOhlF2MA0GCSqGSIb3DQEBBQUAA4GBAI0hCNnuacTO
WgcYuoeSs8BkdwHFsJ2VYTcMWd0koafqckOgLunYayhmDtMyOlAakQZY3P9pcYcG
p7Py5jDgYcmsgMeVP0QqCD8FFLzGHBC2HHwpnWcguFXGKPcZLs6QyynqRQ5WUYMh
9L60atWhUNieSj6qUyo9bO8bbP1aP3S5
-----END CERTIFICATE-----
